target datalayout = "e-m:e-p270:32:32-p271:32:32-p272:64:64-i64:64-i128:128-f80:128-n8:16:32:64-S128"
target triple = "x86_64-pc-linux-gnu"

%struct.PartitionPruningData = type { i32, [0 x %struct.PartitionedRelPruningData] }
%struct.PartitionedRelPruningData = type { ptr, i32, ptr, ptr, ptr, ptr, ptr, ptr, %struct.PartitionPruneContext, %struct.PartitionPruneContext }
%struct.PartitionPruneContext = type { i8, i32, i32, ptr, ptr, ptr, ptr, ptr, ptr, ptr, ptr }

; Function Attrs: nounwind uwtable
define internal void @find_matching_subplans_recurse(ptr noundef %0, ptr noundef %1, i1 noundef zeroext %2, ptr noundef %3, ptr noundef %4) #0 {
  %6 = alloca ptr, align 8
  %7 = alloca ptr, align 8
  %8 = alloca i8, align 1
  %9 = alloca ptr, align 8
  %10 = alloca ptr, align 8
  %11 = alloca ptr, align 8
  %12 = alloca i32, align 4
  %13 = alloca i32, align 4
  store ptr %0, ptr %6, align 8
  store ptr %1, ptr %7, align 8
  %14 = zext i1 %2 to i8
  store i8 %14, ptr %8, align 1
  store ptr %3, ptr %9, align 8
  store ptr %4, ptr %10, align 8
  call void @llvm.lifetime.start.p0(i64 8, ptr %11) #9
  call void @llvm.lifetime.start.p0(i64 4, ptr %12) #9
  call void @check_stack_depth()
  %15 = load i8, ptr %8, align 1, !range !4, !noundef !5
  %16 = trunc i8 %15 to i1
  br i1 %16, label %17, label %29

17:                                               ; preds = %5
  %18 = load ptr, ptr %7, align 8
  %19 = getelementptr inbounds nuw %struct.PartitionedRelPruningData, ptr %18, i32 0, i32 6
  %20 = load ptr, ptr %19, align 8
  %21 = icmp ne ptr %20, null
  br i1 %21, label %22, label %29

22:                                               ; preds = %17
  %23 = load ptr, ptr %7, align 8
  %24 = getelementptr inbounds nuw %struct.PartitionedRelPruningData, ptr %23, i32 0, i32 8
  %25 = load ptr, ptr %7, align 8
  %26 = getelementptr inbounds nuw %struct.PartitionedRelPruningData, ptr %25, i32 0, i32 6
  %27 = load ptr, ptr %26, align 8
  %28 = call ptr @get_matching_partitions(ptr noundef %24, ptr noundef %27)
  store ptr %28, ptr %11, align 8
  br label %49

29:                                               ; preds = %17, %5
  %30 = load i8, ptr %8, align 1, !range !4, !noundef !5
  %31 = trunc i8 %30 to i1
  br i1 %31, label %44, label %32

32:                                               ; preds = %29
  %33 = load ptr, ptr %7, align 8
  %34 = getelementptr inbounds nuw %struct.PartitionedRelPruningData, ptr %33, i32 0, i32 7
  %35 = load ptr, ptr %34, align 8
  %36 = icmp ne ptr %35, null
  br i1 %36, label %37, label %44

37:                                               ; preds = %32
  %38 = load ptr, ptr %7, align 8
  %39 = getelementptr inbounds nuw %struct.PartitionedRelPruningData, ptr %38, i32 0, i32 9
  %40 = load ptr, ptr %7, align 8
  %41 = getelementptr inbounds nuw %struct.PartitionedRelPruningData, ptr %40, i32 0, i32 7
  %42 = load ptr, ptr %41, align 8
  %43 = call ptr @get_matching_partitions(ptr noundef %39, ptr noundef %42)
  store ptr %43, ptr %11, align 8
  br label %48

44:                                               ; preds = %32, %29
  %45 = load ptr, ptr %7, align 8
  %46 = getelementptr inbounds nuw %struct.PartitionedRelPruningData, ptr %45, i32 0, i32 5
  %47 = load ptr, ptr %46, align 8
  store ptr %47, ptr %11, align 8
  br label %48

48:                                               ; preds = %44, %37
  br label %49

49:                                               ; preds = %48, %22
  store i32 -1, ptr %12, align 4
  br label %50

50:                                               ; preds = %114, %49
  %51 = load ptr, ptr %11, align 8
  %52 = load i32, ptr %12, align 4
  %53 = call i32 @bms_next_member(ptr noundef %51, i32 noundef %52)
  store i32 %53, ptr %12, align 4
  %54 = icmp sge i32 %53, 0
  br i1 %54, label %55, label %115

55:                                               ; preds = %50
  %56 = load ptr, ptr %7, align 8
  %57 = getelementptr inbounds nuw %struct.PartitionedRelPruningData, ptr %56, i32 0, i32 2
  %58 = load ptr, ptr %57, align 8
  %59 = load i32, ptr %12, align 4
  %60 = sext i32 %59 to i64
  %61 = getelementptr inbounds i32, ptr %58, i64 %60
  %62 = load i32, ptr %61, align 4
  %63 = icmp sge i32 %62, 0
  br i1 %63, label %64, label %91

64:                                               ; preds = %55
  %65 = load ptr, ptr %9, align 8
  %66 = load ptr, ptr %65, align 8
  %67 = load ptr, ptr %7, align 8
  %68 = getelementptr inbounds nuw %struct.PartitionedRelPruningData, ptr %67, i32 0, i32 2
  %69 = load ptr, ptr %68, align 8
  %70 = load i32, ptr %12, align 4
  %71 = sext i32 %70 to i64
  %72 = getelementptr inbounds i32, ptr %69, i64 %71
  %73 = load i32, ptr %72, align 4
  %74 = call ptr @bms_add_member(ptr noundef %66, i32 noundef %73)
  %75 = load ptr, ptr %9, align 8
  store ptr %74, ptr %75, align 8
  %76 = load ptr, ptr %10, align 8
  %77 = icmp ne ptr %76, null
  br i1 %77, label %78, label %90

78:                                               ; preds = %64
  %79 = load ptr, ptr %10, align 8
  %80 = load ptr, ptr %79, align 8
  %81 = load ptr, ptr %7, align 8
  %82 = getelementptr inbounds nuw %struct.PartitionedRelPruningData, ptr %81, i32 0, i32 4
  %83 = load ptr, ptr %82, align 8
  %84 = load i32, ptr %12, align 4
  %85 = sext i32 %84 to i64
  %86 = getelementptr inbounds i32, ptr %83, i64 %85
  %87 = load i32, ptr %86, align 4
  %88 = call ptr @bms_add_member(ptr noundef %80, i32 noundef %87)
  %89 = load ptr, ptr %10, align 8
  store ptr %88, ptr %89, align 8
  br label %90

90:                                               ; preds = %78, %64
  br label %114

91:                                               ; preds = %55
  call void @llvm.lifetime.start.p0(i64 4, ptr %13) #9
  %92 = load ptr, ptr %7, align 8
  %93 = getelementptr inbounds nuw %struct.PartitionedRelPruningData, ptr %92, i32 0, i32 3
  %94 = load ptr, ptr %93, align 8
  %95 = load i32, ptr %12, align 4
  %96 = sext i32 %95 to i64
  %97 = getelementptr inbounds i32, ptr %94, i64 %96
  %98 = load i32, ptr %97, align 4
  store i32 %98, ptr %13, align 4
  %99 = load i32, ptr %13, align 4
  %100 = icmp sge i32 %99, 0
  br i1 %100, label %101, label %112

101:                                              ; preds = %91
  %102 = load ptr, ptr %6, align 8
  %103 = load ptr, ptr %6, align 8
  %104 = getelementptr inbounds nuw %struct.PartitionPruningData, ptr %103, i32 0, i32 1
  %105 = load i32, ptr %13, align 4
  %106 = sext i32 %105 to i64
  %107 = getelementptr inbounds [0 x %struct.PartitionedRelPruningData], ptr %104, i64 0, i64 %106
  %108 = load i8, ptr %8, align 1, !range !4, !noundef !5
  %109 = trunc i8 %108 to i1
  %110 = load ptr, ptr %9, align 8
  %111 = load ptr, ptr %10, align 8
  call void @find_matching_subplans_recurse(ptr noundef %102, ptr noundef %107, i1 noundef zeroext %109, ptr noundef %110, ptr noundef %111)
  br label %113

112:                                              ; preds = %91
  br label %113

113:                                              ; preds = %112, %101
  call void @llvm.lifetime.end.p0(i64 4, ptr %13) #9
  br label %114

114:                                              ; preds = %113, %90
  br label %50, !llvm.loop !31

115:                                              ; preds = %50
  call void @llvm.lifetime.end.p0(i64 4, ptr %12) #9
  call void @llvm.lifetime.end.p0(i64 8, ptr %11) #9
  ret void
}