; Function Attrs: nounwind uwtable
define internal fastcc void @find_matching_subplans_recurse(ptr noundef %0, ptr noundef %1, i1 noundef zeroext %2, ptr noundef nonnull captures(none) %3, ptr noundef captures(address_is_null) %4) unnamed_addr #0 {
  tail call void @check_stack_depth() #9
  br i1 %2, label %6, label %.critedge

6:                                                ; preds = %5
  %7 = getelementptr inbounds nuw i8, ptr %1, i64 48
  %8 = load ptr, ptr %7, align 8
  %.not = icmp eq ptr %8, null
  br i1 %.not, label %17, label %9

9:                                                ; preds = %6
  %10 = getelementptr inbounds nuw i8, ptr %1, i64 64
  %11 = tail call ptr @get_matching_partitions(ptr noundef nonnull %10, ptr noundef nonnull %8) #9
  br label %20

.critedge:                                        ; preds = %5
  %12 = getelementptr inbounds nuw i8, ptr %1, i64 56
  %13 = load ptr, ptr %12, align 8
  %.not37 = icmp eq ptr %13, null
  br i1 %.not37, label %17, label %14

14:                                               ; preds = %.critedge
  %15 = getelementptr inbounds nuw i8, ptr %1, i64 144
  %16 = tail call ptr @get_matching_partitions(ptr noundef nonnull %15, ptr noundef nonnull %13) #9
  br label %20

17:                                               ; preds = %6, %.critedge
  %18 = getelementptr inbounds nuw i8, ptr %1, i64 40
  %19 = load ptr, ptr %18, align 8
  br label %20

20:                                               ; preds = %14, %17, %9
  %.0 = phi ptr [ %11, %9 ], [ %19, %17 ], [ %16, %14 ]
  %21 = tail call i32 @bms_next_member(ptr noundef %.0, i32 noundef -1) #9
  %22 = icmp sgt i32 %21, -1
  br i1 %22, label %.lr.ph, label %._crit_edge

.lr.ph:                                           ; preds = %20
  %23 = getelementptr inbounds nuw i8, ptr %1, i64 16
  %24 = getelementptr inbounds nuw i8, ptr %1, i64 24
  %25 = getelementptr inbounds nuw i8, ptr %0, i64 8
  %.not38 = icmp eq ptr %4, null
  %26 = getelementptr inbounds nuw i8, ptr %1, i64 32
  br i1 %.not38, label %.lr.ph.split.us, label %.lr.ph.split

.lr.ph.split.us:                                  ; preds = %.lr.ph, %44
  %27 = phi i32 [ %45, %44 ], [ %21, %.lr.ph ]
  %28 = load ptr, ptr %23, align 8
  %29 = zext nneg i32 %27 to i64
  %30 = getelementptr inbounds nuw i32, ptr %28, i64 %29
  %31 = load i32, ptr %30, align 4
  %32 = icmp sgt i32 %31, -1
  br i1 %32, label %41, label %33

33:                                               ; preds = %.lr.ph.split.us
  %34 = load ptr, ptr %24, align 8
  %35 = getelementptr inbounds nuw i32, ptr %34, i64 %29
  %36 = load i32, ptr %35, align 4
  %37 = icmp sgt i32 %36, -1
  br i1 %37, label %38, label %44

38:                                               ; preds = %33
  %39 = zext nneg i32 %36 to i64
  %40 = getelementptr inbounds nuw [0 x %struct.PartitionedRelPruningData], ptr %25, i64 0, i64 %39
  tail call fastcc void @find_matching_subplans_recurse(ptr noundef %0, ptr noundef nonnull %40, i1 noundef zeroext %2, ptr noundef %3, ptr noundef null)
  br label %44

41:                                               ; preds = %.lr.ph.split.us
  %42 = load ptr, ptr %3, align 8
  %43 = tail call ptr @bms_add_member(ptr noundef %42, i32 noundef %31) #9
  store ptr %43, ptr %3, align 8
  br label %44

44:                                               ; preds = %41, %38, %33
  %45 = tail call i32 @bms_next_member(ptr noundef %.0, i32 noundef %27) #9
  %46 = icmp sgt i32 %45, -1
  br i1 %46, label %.lr.ph.split.us, label %._crit_edge, !llvm.loop !26

.lr.ph.split:                                     ; preds = %.lr.ph, %69
  %47 = phi i32 [ %70, %69 ], [ %21, %.lr.ph ]
  %48 = load ptr, ptr %23, align 8
  %49 = zext nneg i32 %47 to i64
  %50 = getelementptr inbounds nuw i32, ptr %48, i64 %49
  %51 = load i32, ptr %50, align 4
  %52 = icmp sgt i32 %51, -1
  br i1 %52, label %53, label %61

53:                                               ; preds = %.lr.ph.split
  %54 = load ptr, ptr %3, align 8
  %55 = tail call ptr @bms_add_member(ptr noundef %54, i32 noundef %51) #9
  store ptr %55, ptr %3, align 8
  %56 = load ptr, ptr %4, align 8
  %57 = load ptr, ptr %26, align 8
  %58 = getelementptr inbounds nuw i32, ptr %57, i64 %49
  %59 = load i32, ptr %58, align 4
  %60 = tail call ptr @bms_add_member(ptr noundef %56, i32 noundef %59) #9
  store ptr %60, ptr %4, align 8
  br label %69

61:                                               ; preds = %.lr.ph.split
  %62 = load ptr, ptr %24, align 8
  %63 = getelementptr inbounds nuw i32, ptr %62, i64 %49
  %64 = load i32, ptr %63, align 4
  %65 = icmp sgt i32 %64, -1
  br i1 %65, label %66, label %69

66:                                               ; preds = %61
  %67 = zext nneg i32 %64 to i64
  %68 = getelementptr inbounds nuw [0 x %struct.PartitionedRelPruningData], ptr %25, i64 0, i64 %67
  tail call fastcc void @find_matching_subplans_recurse(ptr noundef %0, ptr noundef nonnull %68, i1 noundef zeroext %2, ptr noundef %3, ptr noundef nonnull %4)
  br label %69

69:                                               ; preds = %66, %61, %53
  %70 = tail call i32 @bms_next_member(ptr noundef %.0, i32 noundef %47) #9
  %71 = icmp sgt i32 %70, -1
  br i1 %71, label %.lr.ph.split, label %._crit_edge, !llvm.loop !26

._crit_edge:                                      ; preds = %69, %44, %20
  ret void
}